; Function Attrs: mustprogress uwtable
define dso_local noundef ptr @_ZN4Luau15RefinementArena8negationEPNS_7VariantIJNS_8VariadicENS_8NegationENS_11ConjunctionENS_11DisjunctionENS_11EquivalenceENS_11PropositionEEEE(ptr noundef nonnull align 8 dereferenceable(40) %0, ptr noundef %1) local_unnamed_addr #0 align 2 {
  %.not = icmp eq ptr %1, null
  br i1 %.not, label %18, label %3

3:                                                ; preds = %2
  %4 = getelementptr inbounds nuw i8, ptr %0, i64 32
  %5 = load i64, ptr %4, align 8
  %6 = icmp ugt i64 %5, 1023
  br i1 %6, label %7, label %_ZN4Luau14TypedAllocatorINS_7VariantIJNS_8VariadicENS_8NegationENS_11ConjunctionENS_11DisjunctionENS_11EquivalenceENS_11PropositionEEEEE8allocateIJS3_EEEPS8_DpOT_.exit

7:                                                ; preds = %3
  tail call void @_ZN4Luau14TypedAllocatorINS_7VariantIJNS_8VariadicENS_8NegationENS_11ConjunctionENS_11DisjunctionENS_11EquivalenceENS_11PropositionEEEEE11appendBlockEv(ptr noundef nonnull align 8 dereferenceable(40) %0)
  %.pre.i = load i64, ptr %4, align 8
  br label %_ZN4Luau14TypedAllocatorINS_7VariantIJNS_8VariadicENS_8NegationENS_11ConjunctionENS_11DisjunctionENS_11EquivalenceENS_11PropositionEEEEE8allocateIJS3_EEEPS8_DpOT_.exit

_ZN4Luau14TypedAllocatorINS_7VariantIJNS_8VariadicENS_8NegationENS_11ConjunctionENS_11DisjunctionENS_11EquivalenceENS_11PropositionEEEEE8allocateIJS3_EEEPS8_DpOT_.exit: ; preds = %3, %7
  %8 = phi i64 [ %.pre.i, %7 ], [ %5, %3 ]
  %9 = getelementptr inbounds nuw i8, ptr %0, i64 16
  %10 = load ptr, ptr %9, align 8
  %11 = getelementptr inbounds i8, ptr %10, i64 -8
  %12 = load ptr, ptr %11, align 8
  %13 = getelementptr inbounds %"class.Luau::Variant", ptr %12, i64 %8
  store i32 1, ptr %13, align 8
  %14 = getelementptr inbounds nuw i8, ptr %13, i64 8
  %15 = ptrtoint ptr %1 to i64
  store i64 %15, ptr %14, align 8
  %16 = load i64, ptr %4, align 8
  %17 = add i64 %16, 1
  store i64 %17, ptr %4, align 8
  br label %18

18:                                               ; preds = %2, %_ZN4Luau14TypedAllocatorINS_7VariantIJNS_8VariadicENS_8NegationENS_11ConjunctionENS_11DisjunctionENS_11EquivalenceENS_11PropositionEEEEE8allocateIJS3_EEEPS8_DpOT_.exit
  %.0 = phi ptr [ %13, %_ZN4Luau14TypedAllocatorINS_7VariantIJNS_8VariadicENS_8NegationENS_11ConjunctionENS_11DisjunctionENS_11EquivalenceENS_11PropositionEEEEE8allocateIJS3_EEEPS8_DpOT_.exit ], [ null, %2 ]
  ret ptr %.0
}